Certificate:
    Data:
        Version: 3 (0x2)
        Serial Number: 0 (0x0)
        Signature Algorithm: sha1WithRSAEncryption
        Issuer: C=US, ST=Indiana, O=Indiana University, OU=FutureGrid Project, CN=im3r.idp.iu.futuregrid.org/emailAddress=fg-administrators@futuregrid.org
        Validity
            Not Before: Mar  9 01:44:10 2010 GMT
            Not After : Mar  8 01:44:10 2013 GMT
        Subject: C=US, ST=Indiana, O=Indiana University, OU=FutureGrid Project, CN=im3r.idp.iu.futuregrid.org/emailAddress=fg-administrators@futuregrid.org
        Subject Public Key Info:
            Public Key Algorithm: rsaEncryption
            RSA Public Key: (1024 bit)
                Modulus (1024 bit):
                    00:c7:a5:45:af:bc:0b:7b:54:97:dc:61:ef:2e:4b:
                    b1:38:1e:8c:71:56:f4:14:d2:81:a7:50:6f:97:49:
                    aa:92:87:c8:71:35:68:65:60:b0:8b:56:c6:e6:48:
                    7a:52:0d:10:ca:d0:f5:d7:eb:dc:2b:db:c6:59:26:
                    be:f5:c6:8e:12:bb:5d:a9:ec:95:d7:b6:45:82:7d:
                    2d:10:ef:16:13:b9:a3:db:98:59:fc:78:9c:eb:d2:
                    37:74:bd:a6:ab:20:04:8e:9b:45:a9:59:51:0e:56:
                    3a:c6:9a:8e:f3:8b:a3:e1:ff:80:2f:d0:99:a0:2e:
                    4c:87:1f:ef:a4:1a:49:73:71
                Exponent: 65537 (0x10001)
        X509v3 extensions:
            X509v3 Basic Constraints: 
                CA:FALSE
            Netscape Comment: 
                OpenSSL Generated Certificate
            X509v3 Subject Key Identifier: 
                F3:B2:18:28:1D:B7:86:7E:F8:D8:86:62:D2:57:C7:AE:FD:99:C1:18
            X509v3 Authority Key Identifier: 
                keyid:F3:B2:18:28:1D:B7:86:7E:F8:D8:86:62:D2:57:C7:AE:FD:99:C1:18

    Signature Algorithm: sha1WithRSAEncryption
        7a:2b:d1:4e:1d:ed:6d:ca:12:af:f1:2e:1d:b4:48:9c:1d:32:
        7b:0a:7b:fe:86:ca:a5:3f:56:fb:42:00:83:b5:d6:34:5b:0a:
        03:8d:e6:0d:2f:e0:2d:b0:5a:18:97:68:29:d5:79:1f:ed:e0:
        d8:cf:05:04:f4:6d:94:d6:03:51:bf:c9:7e:90:91:28:4c:aa:
        f0:3c:a2:67:b3:8a:3e:19:79:4c:4f:8a:76:48:5f:33:d4:f5:
        4d:1c:3e:33:59:39:eb:a9:08:92:b7:80:07:39:a7:98:12:67:
        c0:d6:64:15:59:f4:5c:c9:5c:65:15:ff:d2:2d:cf:41:aa:7a:
        a4:14
-----BEGIN CERTIFICATE-----
MIIDUTCCArqgAwIBAgIBADANBgkqhkiG9w0BAQUFADCBrzELMAkGA1UEBhMCVVMx
EDAOBgNVBAgTB0luZGlhbmExGzAZBgNVBAoTEkluZGlhbmEgVW5pdmVyc2l0eTEb
MBkGA1UECxMSRnV0dXJlR3JpZCBQcm9qZWN0MSMwIQYDVQQDExppbTNyLmlkcC5p
dS5mdXR1cmVncmlkLm9yZzEvMC0GCSqGSIb3DQEJARYgZmctYWRtaW5pc3RyYXRv
cnNAZnV0dXJlZ3JpZC5vcmcwHhcNMTAwMzA5MDE0NDEwWhcNMTMwMzA4MDE0NDEw
WjCBrzELMAkGA1UEBhMCVVMxEDAOBgNVBAgTB0luZGlhbmExGzAZBgNVBAoTEklu
ZGlhbmEgVW5pdmVyc2l0eTEbMBkGA1UECxMSRnV0dXJlR3JpZCBQcm9qZWN0MSMw
IQYDVQQDExppbTNyLmlkcC5pdS5mdXR1cmVncmlkLm9yZzEvMC0GCSqGSIb3DQEJ
ARYgZmctYWRtaW5pc3RyYXRvcnNAZnV0dXJlZ3JpZC5vcmcwgZ8wDQYJKoZIhvcN
AQEBBQADgY0AMIGJAoGBAMelRa+8C3tUl9xh7y5LsTgejHFW9BTSgadQb5dJqpKH
yHE1aGVgsItWxuZIelINEMrQ9dfr3CvbxlkmvvXGjhK7Xanslde2RYJ9LRDvFhO5
o9uYWfx4nOvSN3S9pqsgBI6bRalZUQ5WOsaajvOLo+H/gC/QmaAuTIcf76QaSXNx
AgMBAAGjezB5MAkGA1UdEwQCMAAwLAYJYIZIAYb4QgENBB8WHU9wZW5TU0wgR2Vu
ZXJhdGVkIENlcnRpZmljYXRlMB0GA1UdDgQWBBTzshgoHbeGfvjYhmLSV8eu/ZnB
GDAfBgNVHSMEGDAWgBTzshgoHbeGfvjYhmLSV8eu/ZnBGDANBgkqhkiG9w0BAQUF
AAOBgQB6K9FOHe1tyhKv8S4dtEicHTJ7Cnv+hsqlP1b7QgCDtdY0WwoDjeYNL+At
sFoYl2gp1Xkf7eDYzwUE9G2U1gNRv8l+kJEoTKrwPKJns4o+GXlMT4p2SF8z1PVN
HD4zWTnrqQiSt4AHOaeYEmfA1mQVWfRcyVxlFf/SLc9BqnqkFA==
-----END CERTIFICATE-----
